target datalayout = "e-m:e-p270:32:32-p271:32:32-p272:64:64-i64:64-i128:128-f80:128-n8:16:32:64-S128"
target triple = "x86_64-pc-linux-gnu"

%struct.lf_state = type { ptr, i64, [32 x ptr] }
%struct.refill_data = type { ptr, i64, ptr }
%struct.cache_line = type { i64, [512 x i8] }

@stderr = external global ptr, align 8
@.str = private unnamed_addr constant [4 x i8] c"%s\0A\00", align 1
@.str.7 = private unnamed_addr constant [13 x i8] c"fseek failed\00", align 1
@.str.8 = private unnamed_addr constant [13 x i8] c"fread failed\00", align 1

; Function Attrs: nounwind uwtable
define internal ptr @refill_cache(ptr noundef %0) #0 {
  %2 = alloca ptr, align 8
  %3 = alloca ptr, align 8
  %4 = alloca i64, align 8
  %5 = alloca ptr, align 8
  %6 = alloca i64, align 8
  %7 = alloca i64, align 8
  %8 = alloca ptr, align 8
  %9 = alloca i8, align 1
  %10 = alloca ptr, align 8
  store ptr %0, ptr %2, align 8, !tbaa !28
  call void @llvm.lifetime.start.p0(i64 8, ptr %3) #9
  %11 = load ptr, ptr %2, align 8, !tbaa !28
  %12 = getelementptr inbounds nuw %struct.refill_data, ptr %11, i32 0, i32 0
  %13 = load ptr, ptr %12, align 8, !tbaa !44
  store ptr %13, ptr %3, align 8, !tbaa !28
  call void @llvm.lifetime.start.p0(i64 8, ptr %4) #9
  %14 = load ptr, ptr %2, align 8, !tbaa !28
  %15 = getelementptr inbounds nuw %struct.refill_data, ptr %14, i32 0, i32 1
  %16 = load i64, ptr %15, align 8, !tbaa !46
  store i64 %16, ptr %4, align 8, !tbaa !11
  call void @llvm.lifetime.start.p0(i64 8, ptr %5) #9
  %17 = load ptr, ptr %3, align 8, !tbaa !28
  %18 = getelementptr inbounds nuw %struct.lf_state, ptr %17, i32 0, i32 0
  %19 = load ptr, ptr %18, align 8, !tbaa !39
  store ptr %19, ptr %5, align 8, !tbaa !9
  call void @llvm.lifetime.start.p0(i64 8, ptr %6) #9
  %20 = load i64, ptr %4, align 8, !tbaa !11
  %21 = and i64 %20, -512
  store i64 %21, ptr %6, align 8, !tbaa !11
  call void @llvm.lifetime.start.p0(i64 8, ptr %7) #9
  %22 = load i64, ptr %4, align 8, !tbaa !11
  %23 = and i64 %22, 16383
  %24 = lshr i64 %23, 9
  store i64 %24, ptr %7, align 8, !tbaa !11
  call void @llvm.lifetime.start.p0(i64 8, ptr %8) #9
  %25 = load ptr, ptr %2, align 8, !tbaa !28
  %26 = getelementptr inbounds nuw %struct.refill_data, ptr %25, i32 0, i32 2
  %27 = load ptr, ptr %26, align 8, !tbaa !47
  store ptr %27, ptr %8, align 8, !tbaa !28
  call void @llvm.lifetime.start.p0(i64 1, ptr %9) #9
  %28 = load i64, ptr %6, align 8, !tbaa !11
  %29 = load ptr, ptr %3, align 8, !tbaa !28
  %30 = getelementptr inbounds nuw %struct.lf_state, ptr %29, i32 0, i32 1
  %31 = load i64, ptr %30, align 8, !tbaa !42
  %32 = icmp ne i64 %28, %31
  br i1 %32, label %33, label %41

33:                                               ; preds = %1
  %34 = load ptr, ptr %5, align 8, !tbaa !9
  %35 = load i64, ptr %6, align 8, !tbaa !11
  %36 = call i32 @fseek(ptr noundef %34, i64 noundef %35, i32 noundef 0)
  %37 = icmp ne i32 %36, 0
  br i1 %37, label %38, label %41

38:                                               ; preds = %33
  %39 = load ptr, ptr @stderr, align 8, !tbaa !9
  %40 = call i32 (ptr, ptr, ...) @fprintf(ptr noundef %39, ptr noundef @.str, ptr noundef @.str.7) #9
  call void @abort() #11
  unreachable

41:                                               ; preds = %33, %1
  %42 = load ptr, ptr %8, align 8, !tbaa !28
  %43 = getelementptr inbounds nuw %struct.cache_line, ptr %42, i32 0, i32 1
  %44 = getelementptr inbounds [512 x i8], ptr %43, i64 0, i64 0
  %45 = load ptr, ptr %5, align 8, !tbaa !9
  %46 = call i64 @fread(ptr noundef %44, i64 noundef 1, i64 noundef 512, ptr noundef %45)
  %47 = load i64, ptr %4, align 8, !tbaa !11
  %48 = load i64, ptr %6, align 8, !tbaa !11
  %49 = sub i64 %47, %48
  %50 = icmp ule i64 %46, %49
  br i1 %50, label %51, label %54

51:                                               ; preds = %41
  %52 = load ptr, ptr @stderr, align 8, !tbaa !9
  %53 = call i32 (ptr, ptr, ...) @fprintf(ptr noundef %52, ptr noundef @.str, ptr noundef @.str.8) #9
  call void @abort() #11
  unreachable

54:                                               ; preds = %41
  %55 = load i64, ptr %4, align 8, !tbaa !11
  %56 = lshr i64 %55, 9
  %57 = load ptr, ptr %8, align 8, !tbaa !28
  %58 = getelementptr inbounds nuw %struct.cache_line, ptr %57, i32 0, i32 0
  store i64 %56, ptr %58, align 8, !tbaa !29
  %59 = load ptr, ptr %3, align 8, !tbaa !28
  %60 = getelementptr inbounds nuw %struct.lf_state, ptr %59, i32 0, i32 2
  %61 = load i64, ptr %7, align 8, !tbaa !11
  %62 = getelementptr inbounds nuw [32 x ptr], ptr %60, i64 0, i64 %61
  %63 = load ptr, ptr %8, align 8, !tbaa !28
  store ptr %63, ptr %10, align 8, !tbaa !28
  %64 = load i64, ptr %10, align 8
  store atomic volatile i64 %64, ptr %62 release, align 8
  %65 = load ptr, ptr %3, align 8, !tbaa !28
  %66 = getelementptr inbounds nuw %struct.lf_state, ptr %65, i32 0, i32 2
  %67 = load i64, ptr %7, align 8, !tbaa !11
  %68 = getelementptr inbounds nuw [32 x ptr], ptr %66, i64 0, i64 %67
  call void @GC_end_stubborn_change(ptr noundef %68)
  %69 = load i64, ptr %6, align 8, !tbaa !11
  %70 = add i64 %69, 512
  %71 = load ptr, ptr %3, align 8, !tbaa !28
  %72 = getelementptr inbounds nuw %struct.lf_state, ptr %71, i32 0, i32 1
  store i64 %70, ptr %72, align 8, !tbaa !42
  %73 = load ptr, ptr %8, align 8, !tbaa !28
  %74 = getelementptr inbounds nuw %struct.cache_line, ptr %73, i32 0, i32 1
  %75 = load i64, ptr %4, align 8, !tbaa !11
  %76 = and i64 %75, 511
  %77 = getelementptr inbounds nuw [512 x i8], ptr %74, i64 0, i64 %76
  %78 = load i8, ptr %77, align 1, !tbaa !8
  store i8 %78, ptr %9, align 1, !tbaa !8
  %79 = load i8, ptr %9, align 1, !tbaa !8
  %80 = zext i8 %79 to i64
  %81 = inttoptr i64 %80 to ptr
  call void @llvm.lifetime.end.p0(i64 1, ptr %9) #9
  call void @llvm.lifetime.end.p0(i64 8, ptr %8) #9
  call void @llvm.lifetime.end.p0(i64 8, ptr %7) #9
  call void @llvm.lifetime.end.p0(i64 8, ptr %6) #9
  call void @llvm.lifetime.end.p0(i64 8, ptr %5) #9
  call void @llvm.lifetime.end.p0(i64 8, ptr %4) #9
  call void @llvm.lifetime.end.p0(i64 8, ptr %3) #9
  ret ptr %81
}