; Function Attrs: nounwind uwtable
define internal ptr @refill_cache(ptr noundef readonly captures(none) %0) #0 {
  %2 = load ptr, ptr %0, align 8, !tbaa !40
  %3 = getelementptr inbounds nuw i8, ptr %0, i64 8
  %4 = load i64, ptr %3, align 8, !tbaa !42
  %5 = load ptr, ptr %2, align 8, !tbaa !34
  %6 = and i64 %4, -512
  %7 = getelementptr inbounds nuw i8, ptr %0, i64 16
  %8 = load ptr, ptr %7, align 8, !tbaa !43
  %9 = getelementptr inbounds nuw i8, ptr %2, i64 8
  %10 = load i64, ptr %9, align 8, !tbaa !38
  %.not = icmp eq i64 %6, %10
  br i1 %.not, label %16, label %11

11:                                               ; preds = %1
  %12 = tail call i32 @fseek(ptr noundef %5, i64 noundef %6, i32 noundef 0)
  %.not26 = icmp eq i32 %12, 0
  br i1 %.not26, label %16, label %13

13:                                               ; preds = %11
  %14 = load ptr, ptr @stderr, align 8, !tbaa !3
  %15 = tail call i32 (ptr, ptr, ...) @fprintf(ptr noundef %14, ptr noundef nonnull @.str, ptr noundef nonnull @.str.7) #18
  tail call void @abort() #19
  unreachable

16:                                               ; preds = %11, %1
  %17 = getelementptr inbounds nuw i8, ptr %8, i64 8
  %18 = tail call i64 @fread(ptr noundef nonnull %17, i64 noundef 1, i64 noundef 512, ptr noundef %5)
  %19 = and i64 %4, 511
  %.not27 = icmp ugt i64 %18, %19
  br i1 %.not27, label %23, label %20

20:                                               ; preds = %16
  %21 = load ptr, ptr @stderr, align 8, !tbaa !3
  %22 = tail call i32 (ptr, ptr, ...) @fprintf(ptr noundef %21, ptr noundef nonnull @.str, ptr noundef nonnull @.str.8) #18
  tail call void @abort() #19
  unreachable

23:                                               ; preds = %16
  %24 = lshr i64 %4, 9
  %25 = and i64 %24, 31
  store i64 %24, ptr %8, align 8, !tbaa !26
  %26 = getelementptr inbounds nuw i8, ptr %2, i64 16
  %27 = getelementptr inbounds nuw [32 x ptr], ptr %26, i64 0, i64 %25
  %28 = ptrtoint ptr %8 to i64
  store atomic volatile i64 %28, ptr %27 release, align 8
  tail call void @GC_end_stubborn_change(ptr noundef nonnull %27) #16
  %29 = add i64 %6, 512
  store i64 %29, ptr %9, align 8, !tbaa !38
  %30 = getelementptr inbounds nuw [512 x i8], ptr %17, i64 0, i64 %19
  %31 = load i8, ptr %30, align 1, !tbaa !8
  %32 = zext i8 %31 to i64
  %33 = inttoptr i64 %32 to ptr
  ret ptr %33
}